; Function Attrs: mustprogress nofree norecurse nounwind willreturn uwtable
define hidden void @_ZN2cv5GNode4PrivC2ENS_5GCallE(ptr noundef nonnull align 8 dereferenceable(64) initializes((0, 4), (8, 32)) %0, ptr noundef readonly captures(none) %1) unnamed_addr #4 align 2 personality ptr @__gxx_personality_v0 {
  store i32 1, ptr %0, align 8, !tbaa !3
  %3 = getelementptr inbounds nuw i8, ptr %0, i64 8
  store i64 1, ptr %3, align 8, !tbaa !14
  %4 = getelementptr inbounds nuw i8, ptr %0, i64 16
  %5 = load ptr, ptr %1, align 8, !tbaa !18
  store ptr %5, ptr %4, align 8, !tbaa !18
  %6 = getelementptr inbounds nuw i8, ptr %0, i64 24
  %7 = getelementptr inbounds nuw i8, ptr %1, i64 8
  %8 = load ptr, ptr %7, align 8, !tbaa !23
  store ptr %8, ptr %6, align 8, !tbaa !23
  %.not.i.i.i.i.i.i = icmp eq ptr %8, null
  br i1 %.not.i.i.i.i.i.i, label %_ZN2cv4util7variantIJNS0_9monostateENS_5GCallEEEC2IRS3_vEEOT_.exit, label %9

9:                                                ; preds = %2
  %10 = getelementptr inbounds nuw i8, ptr %8, i64 8
  %11 = load i8, ptr @__libc_single_threaded, align 1, !tbaa !17
  %.not.i.i.i.i.i.i.i = icmp eq i8 %11, 0
  br i1 %.not.i.i.i.i.i.i.i, label %15, label %12

12:                                               ; preds = %9
  %13 = load i32, ptr %10, align 4, !tbaa !24
  %14 = add nsw i32 %13, 1
  store i32 %14, ptr %10, align 4, !tbaa !24
  br label %_ZN2cv4util7variantIJNS0_9monostateENS_5GCallEEEC2IRS3_vEEOT_.exit

15:                                               ; preds = %9
  %16 = atomicrmw volatile add ptr %10, i32 1 acq_rel, align 4
  br label %_ZN2cv4util7variantIJNS0_9monostateENS_5GCallEEEC2IRS3_vEEOT_.exit

_ZN2cv4util7variantIJNS0_9monostateENS_5GCallEEEC2IRS3_vEEOT_.exit: ; preds = %2, %12, %15
  %17 = getelementptr inbounds nuw i8, ptr %0, i64 32
  %18 = getelementptr inbounds nuw i8, ptr %0, i64 48
  store ptr %18, ptr %17, align 8, !tbaa !15
  %19 = getelementptr inbounds nuw i8, ptr %0, i64 40
  store i64 0, ptr %19, align 8, !tbaa !16
  store i8 0, ptr %18, align 8, !tbaa !17
  ret void
}